target datalayout = "e-m:e-p270:32:32-p271:32:32-p272:64:64-i64:64-i128:128-f80:128-n8:16:32:64-S128"
target triple = "x86_64-pc-linux-gnu"

%union.pthread_mutex_t = type { %struct.__pthread_mutex_s }
%struct.__pthread_mutex_s = type { i32, i32, i32, i32, i32, i16, i16, %struct.__pthread_internal_list }
%struct.__pthread_internal_list = type { ptr, ptr }
%struct.slurmctld_lock_t = type { i32, i32, i32, i32, i32 }
%union.pthread_cond_t = type { %struct.__pthread_cond_s }
%struct.__pthread_cond_s = type { %union.__atomic_wide_counter, %union.__atomic_wide_counter, [2 x i32], [2 x i32], i32, i32, [2 x i32] }
%union.__atomic_wide_counter = type { i64 }
%struct.slurmctld_config = type { ptr, %union.pthread_cond_t, %union.pthread_mutex_t, %union.pthread_cond_t, %union.pthread_mutex_t, i64, [64 x i8], [64 x i8], i8, i8, i32, i64, i8, %union.pthread_cond_t, %union.pthread_mutex_t, i64, i64, i64, i64 }
%struct.timespec = type { i64, i64 }

@fed_mgr_fed_rec = dso_local global ptr null, align 8
@fed_mgr_cluster_rec = dso_local global ptr null, align 8
@.str = private unnamed_addr constant [10 x i8] c"fed_mgr.c\00", align 1
@.str.1 = private unnamed_addr constant [29 x i8] c"%s: pthread_mutex_lock(): %m\00", align 1
@.str.2 = private unnamed_addr constant [31 x i8] c"%s: pthread_mutex_unlock(): %m\00", align 1
@test_dep_cond = internal global %union.pthread_cond_t zeroinitializer, align 8
@test_dep_mutex = internal global %union.pthread_mutex_t zeroinitializer, align 8
@.str.87 = private unnamed_addr constant [32 x i8] c"%s: cannot set my name to %s %m\00", align 1
@slurmctld_config = external global %struct.slurmctld_config, align 8
@.str.88 = private unnamed_addr constant [39 x i8] c"%s:%d %s: pthread_cond_timedwait(): %m\00", align 1
@__const._test_dep_job_thread.job_read_lock = private unnamed_addr constant %struct.slurmctld_lock_t { i32 0, i32 1, i32 0, i32 0, i32 1 }, align 4
@.str.145 = private unnamed_addr constant [13 x i8] c"fed_test_dep\00", align 1
@__func__._test_dep_job_thread = private unnamed_addr constant [21 x i8] c"_test_dep_job_thread\00", align 1

; Function Attrs: nounwind uwtable
define internal ptr @_test_dep_job_thread(ptr noundef %0) #0 {
  %2 = alloca ptr, align 8
  %3 = alloca i64, align 8
  %4 = alloca i64, align 8
  %5 = alloca %struct.timespec, align 8
  %6 = alloca %struct.slurmctld_lock_t, align 8
  %7 = alloca i32, align 4
  %8 = alloca i32, align 4
  %9 = alloca i32, align 4
  store ptr %0, ptr %2, align 8
  call void @llvm.lifetime.start.p0(i64 8, ptr %3) #9
  store i64 0, ptr %3, align 8
  call void @llvm.lifetime.start.p0(i64 8, ptr %4) #9
  call void @llvm.lifetime.start.p0(i64 16, ptr %5) #9
  call void @llvm.memset.p0.i64(ptr align 8 %5, i8 0, i64 16, i1 false)
  call void @llvm.lifetime.start.p0(i64 20, ptr %6) #9
  call void @llvm.memcpy.p0.p0.i64(ptr align 4 %6, ptr align 4 @__const._test_dep_job_thread.job_read_lock, i64 20, i1 false)
  %10 = call i32 (i32, ...) @prctl(i32 noundef 15, ptr noundef @.str.145, ptr noundef null, ptr noundef null, ptr noundef null) #9
  %11 = icmp slt i32 %10, 0
  br i1 %11, label %12, label %14

12:                                               ; preds = %1
  %13 = call i32 (ptr, ...) @error(ptr noundef @.str.87, ptr noundef @__func__._test_dep_job_thread, ptr noundef @.str.145)
  br label %14

14:                                               ; preds = %12, %1
  br label %15

15:                                               ; preds = %70, %14
  %16 = load i64, ptr getelementptr inbounds nuw (%struct.slurmctld_config, ptr @slurmctld_config, i32 0, i32 11), align 8
  %17 = icmp ne i64 %16, 0
  %18 = xor i1 %17, true
  br i1 %18, label %19, label %71

19:                                               ; preds = %15
  %20 = call i64 @time(ptr noundef null) #9
  store i64 %20, ptr %4, align 8
  %21 = load ptr, ptr @fed_mgr_fed_rec, align 8
  %22 = icmp ne ptr %21, null
  br i1 %22, label %23, label %33

23:                                               ; preds = %19
  %24 = load ptr, ptr @fed_mgr_cluster_rec, align 8
  %25 = icmp ne ptr %24, null
  br i1 %25, label %26, label %33

26:                                               ; preds = %23
  %27 = load i64, ptr %4, align 8
  %28 = load i64, ptr %3, align 8
  %29 = sub nsw i64 %27, %28
  %30 = icmp sgt i64 %29, 30
  br i1 %30, label %31, label %33

31:                                               ; preds = %26
  %32 = load i64, ptr %4, align 8
  store i64 %32, ptr %3, align 8
  call void @lock_slurmctld(ptr noundef byval(%struct.slurmctld_lock_t) align 8 %6)
  call void @fed_mgr_test_remote_dependencies()
  call void @unlock_slurmctld(ptr noundef byval(%struct.slurmctld_lock_t) align 8 %6)
  br label %33

33:                                               ; preds = %31, %26, %23, %19
  br label %34

34:                                               ; preds = %33
  call void @llvm.lifetime.start.p0(i64 4, ptr %7) #9
  %35 = call i32 @pthread_mutex_lock(ptr noundef @test_dep_mutex) #9
  store i32 %35, ptr %7, align 4
  %36 = load i32, ptr %7, align 4
  %37 = icmp ne i32 %36, 0
  br i1 %37, label %38, label %41

38:                                               ; preds = %34
  %39 = load i32, ptr %7, align 4
  %40 = call ptr @__errno_location() #10
  store i32 %39, ptr %40, align 4
  call void (ptr, ...) @fatal_abort(ptr noundef @.str.1, ptr noundef @__func__._test_dep_job_thread) #11
  unreachable

41:                                               ; preds = %34
  call void @llvm.lifetime.end.p0(i64 4, ptr %7) #9
  br label %42

42:                                               ; preds = %41
  br label %43

43:                                               ; preds = %42
  %44 = load i64, ptr %4, align 8
  %45 = add nsw i64 %44, 2
  %46 = getelementptr inbounds nuw %struct.timespec, ptr %5, i32 0, i32 0
  store i64 %45, ptr %46, align 8
  br label %47

47:                                               ; preds = %43
  call void @llvm.lifetime.start.p0(i64 4, ptr %8) #9
  %48 = call i32 @pthread_cond_timedwait(ptr noundef @test_dep_cond, ptr noundef @test_dep_mutex, ptr noundef %5)
  store i32 %48, ptr %8, align 4
  %49 = load i32, ptr %8, align 4
  %50 = icmp ne i32 %49, 0
  br i1 %50, label %51, label %58

51:                                               ; preds = %47
  %52 = load i32, ptr %8, align 4
  %53 = icmp ne i32 %52, 110
  br i1 %53, label %54, label %58

54:                                               ; preds = %51
  %55 = load i32, ptr %8, align 4
  %56 = call ptr @__errno_location() #10
  store i32 %55, ptr %56, align 4
  %57 = call i32 (ptr, ...) @error(ptr noundef @.str.88, ptr noundef @.str, i32 noundef 2440, ptr noundef @__func__._test_dep_job_thread)
  br label %58

58:                                               ; preds = %54, %51, %47
  call void @llvm.lifetime.end.p0(i64 4, ptr %8) #9
  br label %59

59:                                               ; preds = %58
  br label %60

60:                                               ; preds = %59
  br label %61

61:                                               ; preds = %60
  call void @llvm.lifetime.start.p0(i64 4, ptr %9) #9
  %62 = call i32 @pthread_mutex_unlock(ptr noundef @test_dep_mutex) #9
  store i32 %62, ptr %9, align 4
  %63 = load i32, ptr %9, align 4
  %64 = icmp ne i32 %63, 0
  br i1 %64, label %65, label %68

65:                                               ; preds = %61
  %66 = load i32, ptr %9, align 4
  %67 = call ptr @__errno_location() #10
  store i32 %66, ptr %67, align 4
  call void (ptr, ...) @fatal_abort(ptr noundef @.str.2, ptr noundef @__func__._test_dep_job_thread) #11
  unreachable

68:                                               ; preds = %61
  call void @llvm.lifetime.end.p0(i64 4, ptr %9) #9
  br label %69

69:                                               ; preds = %68
  br label %70

70:                                               ; preds = %69
  br label %15, !llvm.loop !46

71:                                               ; preds = %15
  call void @llvm.lifetime.end.p0(i64 20, ptr %6) #9
  call void @llvm.lifetime.end.p0(i64 16, ptr %5) #9
  call void @llvm.lifetime.end.p0(i64 8, ptr %4) #9
  call void @llvm.lifetime.end.p0(i64 8, ptr %3) #9
  ret ptr null
}