; Function Attrs: nounwind uwtable
define internal noalias noundef ptr @_test_dep_job_thread(ptr readnone captures(none) %0) #0 {
  %2 = alloca %struct.timespec, align 8
  call void @llvm.lifetime.start.p0(i64 16, ptr nonnull %2) #16
  call void @llvm.memset.p0.i64(ptr noundef nonnull align 8 dereferenceable(16) %2, i8 0, i64 16, i1 false)
  %3 = tail call i32 (i32, ...) @prctl(i32 noundef 15, ptr noundef nonnull @.str.145, ptr noundef null, ptr noundef null, ptr noundef null) #16
  %4 = icmp slt i32 %3, 0
  br i1 %4, label %5, label %.preheader

5:                                                ; preds = %1
  %6 = tail call i32 (ptr, ...) @error(ptr noundef nonnull @.str.87, ptr noundef nonnull @__func__._test_dep_job_thread, ptr noundef nonnull @.str.145) #16
  br label %.preheader

.preheader:                                       ; preds = %5, %1
  br label %7

7:                                                ; preds = %.preheader, %28
  %.0 = phi i64 [ %.1, %28 ], [ 0, %.preheader ]
  %8 = load i64, ptr getelementptr inbounds nuw (i8, ptr @slurmctld_config, i64 328), align 8
  %.not = icmp eq i64 %8, 0
  br i1 %.not, label %9, label %32

9:                                                ; preds = %7
  %10 = call i64 @time(ptr noundef null) #16
  %11 = load ptr, ptr @fed_mgr_fed_rec, align 8
  %12 = icmp ne ptr %11, null
  %13 = load ptr, ptr @fed_mgr_cluster_rec, align 8
  %14 = icmp ne ptr %13, null
  %or.cond = select i1 %12, i1 %14, i1 false
  %15 = sub nsw i64 %10, %.0
  %16 = icmp sgt i64 %15, 30
  %or.cond20 = select i1 %or.cond, i1 %16, i1 false
  br i1 %or.cond20, label %17, label %18

17:                                               ; preds = %9
  call void @lock_slurmctld(ptr noundef nonnull byval(%struct.slurmctld_lock_t) align 8 @__const._test_dep_job_thread.job_read_lock) #16
  call void @fed_mgr_test_remote_dependencies()
  call void @unlock_slurmctld(ptr noundef nonnull byval(%struct.slurmctld_lock_t) align 8 @__const._test_dep_job_thread.job_read_lock) #16
  br label %18

18:                                               ; preds = %9, %17
  %.1 = phi i64 [ %10, %17 ], [ %.0, %9 ]
  %19 = call i32 @pthread_mutex_lock(ptr noundef nonnull @test_dep_mutex) #16
  %.not17 = icmp eq i32 %19, 0
  br i1 %.not17, label %22, label %20

20:                                               ; preds = %18
  %21 = tail call ptr @__errno_location() #17
  store i32 %19, ptr %21, align 4
  call void (ptr, ...) @fatal_abort(ptr noundef nonnull @.str.1, ptr noundef nonnull @__func__._test_dep_job_thread) #18
  unreachable

22:                                               ; preds = %18
  %23 = add nsw i64 %10, 2
  store i64 %23, ptr %2, align 8
  %24 = call i32 @pthread_cond_timedwait(ptr noundef nonnull @test_dep_cond, ptr noundef nonnull @test_dep_mutex, ptr noundef nonnull %2) #16
  switch i32 %24, label %25 [
    i32 110, label %28
    i32 0, label %28
  ]

25:                                               ; preds = %22
  %26 = tail call ptr @__errno_location() #17
  store i32 %24, ptr %26, align 4
  %27 = call i32 (ptr, ...) @error(ptr noundef nonnull @.str.88, ptr noundef nonnull @.str, i32 noundef 2440, ptr noundef nonnull @__func__._test_dep_job_thread) #16
  br label %28

28:                                               ; preds = %22, %22, %25
  %29 = call i32 @pthread_mutex_unlock(ptr noundef nonnull @test_dep_mutex) #16
  %.not18 = icmp eq i32 %29, 0
  br i1 %.not18, label %7, label %30, !llvm.loop !56

30:                                               ; preds = %28
  %31 = tail call ptr @__errno_location() #17
  store i32 %29, ptr %31, align 4
  call void (ptr, ...) @fatal_abort(ptr noundef nonnull @.str.2, ptr noundef nonnull @__func__._test_dep_job_thread) #18
  unreachable

32:                                               ; preds = %7
  call void @llvm.lifetime.end.p0(i64 16, ptr nonnull %2) #16
  ret ptr null
}